target datalayout = "e-m:e-p270:32:32-p271:32:32-p272:64:64-i64:64-i128:128-f80:128-n8:16:32:64-S128"
target triple = "x86_64-pc-linux-gnu"

; Function Attrs: nounwind uwtable
define i32 @H5P__encode_unsigned(ptr noundef %0, ptr noundef %1, ptr noundef %2) #0 {
  %4 = alloca ptr, align 8
  %5 = alloca ptr, align 8
  %6 = alloca ptr, align 8
  %7 = alloca ptr, align 8
  store ptr %0, ptr %4, align 8
  store ptr %1, ptr %5, align 8
  store ptr %2, ptr %6, align 8
  %8 = load ptr, ptr %5, align 8
  store ptr %8, ptr %7, align 8
  %9 = load ptr, ptr %7, align 8
  %10 = load ptr, ptr %9, align 8
  %11 = icmp ne ptr null, %10
  br i1 %11, label %12, label %59

12:                                               ; preds = %3
  %13 = load ptr, ptr %7, align 8
  %14 = load ptr, ptr %13, align 8
  %15 = getelementptr inbounds i8, ptr %14, i32 1
  store ptr %15, ptr %13, align 8
  store i8 4, ptr %14, align 1
  br label %16

16:                                               ; preds = %12
  br label %17

17:                                               ; preds = %16
  %18 = load ptr, ptr %4, align 8
  %19 = load i32, ptr %18, align 4
  %20 = and i32 %19, 255
  %21 = trunc i32 %20 to i8
  %22 = load ptr, ptr %7, align 8
  %23 = load ptr, ptr %22, align 8
  store i8 %21, ptr %23, align 1
  %24 = load ptr, ptr %7, align 8
  %25 = load ptr, ptr %24, align 8
  %26 = getelementptr inbounds i8, ptr %25, i32 1
  store ptr %26, ptr %24, align 8
  %27 = load ptr, ptr %4, align 8
  %28 = load i32, ptr %27, align 4
  %29 = lshr i32 %28, 8
  %30 = and i32 %29, 255
  %31 = trunc i32 %30 to i8
  %32 = load ptr, ptr %7, align 8
  %33 = load ptr, ptr %32, align 8
  store i8 %31, ptr %33, align 1
  %34 = load ptr, ptr %7, align 8
  %35 = load ptr, ptr %34, align 8
  %36 = getelementptr inbounds i8, ptr %35, i32 1
  store ptr %36, ptr %34, align 8
  %37 = load ptr, ptr %4, align 8
  %38 = load i32, ptr %37, align 4
  %39 = lshr i32 %38, 16
  %40 = and i32 %39, 255
  %41 = trunc i32 %40 to i8
  %42 = load ptr, ptr %7, align 8
  %43 = load ptr, ptr %42, align 8
  store i8 %41, ptr %43, align 1
  %44 = load ptr, ptr %7, align 8
  %45 = load ptr, ptr %44, align 8
  %46 = getelementptr inbounds i8, ptr %45, i32 1
  store ptr %46, ptr %44, align 8
  %47 = load ptr, ptr %4, align 8
  %48 = load i32, ptr %47, align 4
  %49 = lshr i32 %48, 24
  %50 = and i32 %49, 255
  %51 = trunc i32 %50 to i8
  %52 = load ptr, ptr %7, align 8
  %53 = load ptr, ptr %52, align 8
  store i8 %51, ptr %53, align 1
  %54 = load ptr, ptr %7, align 8
  %55 = load ptr, ptr %54, align 8
  %56 = getelementptr inbounds i8, ptr %55, i32 1
  store ptr %56, ptr %54, align 8
  br label %57

57:                                               ; preds = %17
  br label %58

58:                                               ; preds = %57
  br label %59

59:                                               ; preds = %58, %3
  %60 = load ptr, ptr %6, align 8
  %61 = load i64, ptr %60, align 8
  %62 = add i64 %61, 5
  store i64 %62, ptr %60, align 8
  ret i32 0
}