; Function Attrs: mustprogress nofree norecurse nosync nounwind willreturn memory(write, argmem: readwrite, inaccessiblemem: none) uwtable
define noundef i32 @H5P__encode_unsigned(ptr noundef readonly captures(none) %0, ptr noundef captures(none) %1, ptr noundef captures(none) %2) local_unnamed_addr #1 {
  %4 = load ptr, ptr %1, align 8
  %.not = icmp eq ptr %4, null
  br i1 %.not, label %27, label %5

5:                                                ; preds = %3
  %6 = getelementptr inbounds nuw i8, ptr %4, i64 1
  store ptr %6, ptr %1, align 8
  store i8 4, ptr %4, align 1
  %7 = load i32, ptr %0, align 4
  %8 = trunc i32 %7 to i8
  %9 = load ptr, ptr %1, align 8
  store i8 %8, ptr %9, align 1
  %10 = load ptr, ptr %1, align 8
  %11 = getelementptr inbounds nuw i8, ptr %10, i64 1
  store ptr %11, ptr %1, align 8
  %12 = load i32, ptr %0, align 4
  %13 = lshr i32 %12, 8
  %14 = trunc i32 %13 to i8
  store i8 %14, ptr %11, align 1
  %15 = load ptr, ptr %1, align 8
  %16 = getelementptr inbounds nuw i8, ptr %15, i64 1
  store ptr %16, ptr %1, align 8
  %17 = load i32, ptr %0, align 4
  %18 = lshr i32 %17, 16
  %19 = trunc i32 %18 to i8
  store i8 %19, ptr %16, align 1
  %20 = load ptr, ptr %1, align 8
  %21 = getelementptr inbounds nuw i8, ptr %20, i64 1
  store ptr %21, ptr %1, align 8
  %22 = load i32, ptr %0, align 4
  %23 = lshr i32 %22, 24
  %24 = trunc nuw i32 %23 to i8
  store i8 %24, ptr %21, align 1
  %25 = load ptr, ptr %1, align 8
  %26 = getelementptr inbounds nuw i8, ptr %25, i64 1
  store ptr %26, ptr %1, align 8
  br label %27

27:                                               ; preds = %5, %3
  %28 = load i64, ptr %2, align 8
  %29 = add i64 %28, 5
  store i64 %29, ptr %2, align 8
  ret i32 0
}